(lp0
(lp1
F4.74468085106383
aF10.49645390070922
aag1
ag1
a(lp2
F2.475177304964539
aF12.085106382978722
aag2
ag2
a(lp3
F1.0
aF15.943262411347519
aag3
ag3
a(lp4
F2.702127659574468
aF20.141843971631204
aag4
a(lp5
F7.24113475177305
aF20.4822695035461
aag5
a(lp6
F11.212765957446807
aF18.5531914893617
aag6
a(lp7
F15.297872340425531
aF10.49645390070922
aag7
a(lp8
F14.27659574468085
aF19.68794326241135
aag8
ag8
a(lp9
F19.156028368794324
aF21.04964539007092
aag9
ag9
ag9
a(lp10
F21.99290780141844
aF20.368794326241137
aag10
a(lp11
F26.872340425531913
aF9.929078014184396
aag11
a(lp12
F30.617021276595743
aF8.0
aag12
a(lp13
F33.0
aF12.085106382978722
aag13
a(lp14
F32.43262411347518
aF23.43262411347518
aag14
a(lp15
F30.42720066750104
aF21.176470588235293
aag15
a(lp16
F37.015435961618685
aF24.0
aag16
a(lp17
F40.937004589069666
aF23.529411764705884
aag17
ag17
a(lp18
F42.50563204005006
aF21.80392156862745
aag18
ag18
a(lp19
F39.995828118481434
aF16.627450980392158
aag19
a(lp20
F34.035043804755944
aF13.647058823529411
aag20
a(lp21
F40.15269086357947
aF13.176470588235293
aag21
a(lp22
F44.38798498122653
aF10.03921568627451
aag22
ag22
a(lp23
F46.42720066750104
aF5.96078431372549
aag23
ag23
a(lp24
F45.64288694201085
aF2.196078431372549
aag24
a(lp25
F38.74092615769712
aF0.0
aag25
a(lp26
F33.093867334167705
aF1.2549019607843137
aag26
a(lp27
F30.270337922403
aF7.686274509803922
aag27
a(lp28
F34.976220275344176
aF10.823529411764707
aag28
a(lp29
F54.07076502393669
aF8.158415841584159
aag29
a(lp30
F51.37769571700599
aF12.435643564356436
aag30
a(lp31
F50.42720066750104
aF18.13861386138614
aag31
a(lp32
F50.902448192253516
aF20.99009900990099
aag32
ag32
a(lp33
F54.54601254868916
aF23.207920792079207
aag33
a(lp34
F61.9915571031446
aF24.0
aag34
a(lp35
F67.53611155859015
aF23.04950495049505
aag35
a(lp36
F73.23908185561984
aF20.198019801980198
aag36
a(lp37
F74.98165611304559
aF17.18811881188119
aag37
ag37
ag37
a(lp38
F74.34799274670897
aF10.534653465346535
aag38
a(lp39
F70.07076502393669
aF8.0
aag39
a(lp40
F74.03116106354065
aF8.950495049504951
aag40
a(lp41
F94.62522046948123
aF8.158415841584159
aag41
ag41
a(lp42
F95.73413136057034
aF9.10891089108911
aag42
a(lp43
F95.10046799423371
aF11.96039603960396
aag43
a(lp44
F93.04106205363965
aF17.980198019801982
aag44
a(lp45
F91.29848779621392
aF19.247524752475247
aag45
a(lp46
F101.50036512680411
aF11.428571428571429
aag46
a(lp47
F99.73413136057034
aF12.779220779220779
aag47
ag47
a(lp48
F102.01984564628464
aF17.246753246753247
aag48
a(lp49
F108.04581967225866
aF21.2987012987013
aag49
a(lp50
F112.61724824368723
aF21.61038961038961
aag50
a(lp51
F117.08478071121971
aF19.22077922077922
aag51
a(lp52
F117.81205343849243
aF14.64935064935065
aag52
ag52
ag52
a(lp53
F116.56530019173918
aF10.285714285714285
aag53
a(lp54
F113.55231317875217
aF8.103896103896103
aag54
ag54
a(lp55
F111.8899755164145
aF8.207792207792208
aag55
ag55
a(lp56
F111.26659889303788
aF9.662337662337663
aag56
a(lp57
F113.34452097095996
aF23.064935064935064
aag57
ag57
a(lp58
F113.13672876316775
aF32.0
aag58
a(lp59
F127.19523100858588
aF16.97196261682243
aag59
a(lp60
F130.4849506347541
aF16.97196261682243
aag60
a(lp61
F130.63448334503448
aF12.635514018691588
aag61
ag61
a(lp62
F128.39149269082887
aF10.392523364485982
aag62
a(lp63
F125.69990390578215
aF10.542056074766355
aag63
ag63
a(lp64
F121.81205343849243
aF14.280373831775702
aag64
a(lp65
F124.20457680297841
aF21.60747663551402
aag65
a(lp66
F131.53167960671672
aF23.850467289719624
aag66
a(lp67
F139.75597867213727
aF18.766355140186917
aag67
a(lp68
F142.14850203662326
aF14.878504672897197
aag68
ag68
a(lp69
F141.69990390578215
aF11.588785046728972
aag69
a(lp70
F140.8027076440999
aF15.177570093457945
aag70
ag70
ag70
a(lp71
F143.1952310085859
aF19.364485981308412
aag71
a(lp72
F147.83074502727746
aF21.757009345794394
aag72
a(lp73
F152.61579175624942
aF21.30841121495327
aag73
ag73
a(lp74
F160.69055811138963
aF16.97196261682243
aag74
a(lp75
F160.98962353195037
aF12.934579439252335
aag75
a(lp76
F159.34476371886626
aF10.093457943925234
aag76
a(lp77
F160.69055811138963
aF16.22429906542056
aag77
a(lp78
F163.23261418615596
aF19.962616822429908
aag78
a(lp79
F169.9615861487728
aF21.457943925233643
aag79
ag79
a(lp80
F176.69055811138963
aF17.7196261682243
aag80
a(lp81
F178.63448334503448
aF14.57943925233645
aag81
a(lp82
F178.63448334503448
aF10.542056074766355
aag82
a(lp83
F176.09242727026813
aF8.149532710280374
aag83
a(lp84
F-1.0
aF-1.0
aag84
ag84
a(lp85
F140.33167960671673
aF6.220560747663551
aag85
a(lp86
F142.0812123169971
aF5.054205607476636
aag86
a(lp87
F140.33167960671673
aF1.5551401869158878
aag87
a(lp88
F138.09616558802514
aF1.8467289719626168
aag88
a(lp89
F136.05504409269804
aF4.082242990654206
aag89
a(lp90
F137.61018427961392
aF8.844859813084112
aag90
a(lp91
F141.30364222353916
aF10.4
aag91
a(lp92
F147.7185954945672
aF6.998130841121496
aag92
a(lp93
F149.2737356814831
aF4.471028037383178
aag93
a(lp94
F148.78775437307186
aF2.3327102803738318
aag94
a(lp95
F148.59336184970738
aF5.442990654205607
aag95
a(lp96
F151.50924970017468
aF8.553271028037384
aag96
a(lp97
F158.99336184970738
aF7.581308411214954
aag97
a(lp98
F161.32607213008123
aF5.831775700934579
aag98
a(lp99
F160.45130577494103
aF1.3607476635514018
aag99
a(lp100
F162.97840857867936
aF7.775700934579439
aag100
a(lp101
F167.35224035438029
aF8.74766355140187
aag101
a(lp102
F172.98962353195037
aF4.276635514018692
aag102
a(lp103
F172.79523100858592
aF1.1663551401869159
aag103
a(lp104
F170.5597169898943
aF0.0
aag104
ag104
a(lp105
F186.3177583866032
aF19.0920245398773
aag105
a(lp106
F186.12143936819828
aF16.14723926380368
aag106
a(lp107
F183.37297311052959
aF15.656441717791411
aag107
ag107
a(lp108
F183.2748136013271
aF20.073619631901842
aag108
a(lp109
F188.08462955224735
aF24.0
aag109
a(lp110
F190.24413875470134
aF23.01840490797546
aag110
a(lp111
F190.93125531911852
aF19.0920245398773
aag111
ag111
ag111
a(lp112
F191.81469090194062
aF21.447852760736197
aag112
a(lp113
F194.66131666881176
aF23.01840490797546
aag113
a(lp114
F198.39137801850504
aF23.214723926380366
aag114
a(lp115
F200.74720623936392
aF21.644171779141104
aag115
a(lp116
F201.33616329457865
aF17.914110429447852
aag116
ag116
a(lp117
F199.86377065654185
aF16.14723926380368
aag117
ag117
a(lp118
F184.8453657485664
aF13.69325153374233
aag118
a(lp119
F184.8453657485664
aF12.024539877300613
aag119
ag119
a(lp120
F188.08462955224735
aF10.552147239263803
aag120
ag120
a(lp121
F195.15211421482405
aF13.69325153374233
aag121
a(lp122
F198.19505900010012
aF13.69325153374233
aag122
a(lp123
F200.25640869335166
aF11.23926380368098
aag123
a(lp124
F198.98033507371974
aF9.079754601226995
aag124
ag124
a(lp125
F194.95579519641913
aF8.196319018404909
aag125
a(lp126
F194.85763568721669
aF10.257668711656441
aag126
a(lp127
F203.8743228037811
aF20.64
aag127
a(lp128
F204.8343228037811
aF23.36
aag128
ag128
ag128
a(lp129
F206.4343228037811
aF24.0
aag129
a(lp130
F208.9943228037811
aF24.0
aag130
ag130
a(lp131
F210.1143228037811
aF22.56
aag131
ag131
a(lp132
F204.0343228037811
aF6.88
aag132
a(lp133
F208.1943228037811
aF5.28
aag133
a(lp134
F211.23432280378108
aF7.52
aag134
a(lp135
F209.9543228037811
aF10.08
aag135
a(lp136
F203.8743228037811
aF11.2
aag136
a(lp137
F198.7543228037811
aF5.92
aag137
ag137
a(lp138
F199.0743228037811
aF2.88
aag138
a(lp139
F201.3143228037811
aF0.8
aag139
a(lp140
F205.9543228037811
aF0.0
aag140
a(lp141
F215.3943228037811
aF2.24
aag141
a(lp142
F217.1543228037811
aF5.92
aag142
a(lp143
F211.5543228037811
aF10.4
aag143
a(lp144
F230.28052435416868
aF13.333333333333332
aag144
a(lp145
F230.15649334641674
aF15.193798449612403
aag145
a(lp146
F232.0169584626958
aF11.968992248062015
aag146
ag146
ag146
ag146
a(lp147
F230.0324623386648
aF8.124031007751938
aag147
a(lp148
F225.19525303633924
aF8.496124031007753
aag148
a(lp149
F222.59060187354854
aF11.10077519379845
aag149
ag149
a(lp150
F221.4743228037811
aF16.434108527131784
aag150
a(lp151
F224.57509799757955
aF21.14728682170543
aag151
a(lp152
F229.66036931540899
aF21.51937984496124
aag152
a(lp153
F236.10998171850977
aF18.046511627906977
aag153
a(lp154
F238.96269489680435
aF13.705426356589147
aag154
a(lp155
F239.4588189278121
aF10.48062015503876
aag155
ag155
a(lp156
F239.21075691230823
aF19.162790697674417
aag156
a(lp157
F241.31928404409118
aF21.51937984496124
aag157
a(lp158
F245.0402142766493
aF22.13953488372093
aag158
a(lp159
F251.36579567199814
aF19.53488372093023
aag159
a(lp160
F253.4743228037811
aF15.937984496124031
aag160
a(lp161
F252.97819877277334
aF12.465116279069768
aag161
a(lp162
F248.88517551695938
aF8.372093023255815
aag162
a(lp163
F263.8929274549439
aF8.124031007751938
aag163
a(lp164
F262.40455536192064
aF23.875968992248062
aag164
a(lp165
F261.0169584626958
aF27.004524886877828
aag165
a(lp166
F262.4287231685782
aF30.3710407239819
aag166
a(lp167
F266.01243357581797
aF32.0
aag167
a(lp168
F271.4422978292116
aF31.56561085972851
aag168
ag168
a(lp169
F274.04863267084056
aF29.936651583710407
aag169
a(lp170
F276.4377729423338
aF25.15837104072398
aag170
a(lp171
F276.7635647975374
aF8.0
aag171
a(lp172
F284.21184065960637
aF13.241379310344827
aag172
a(lp173
F288.6256337630547
aF16.96551724137931
aag173
ag173
a(lp174
F288.6256337630547
aF18.344827586206897
aag174
a(lp175
F284.4877027285719
aF17.517241379310345
aag175
a(lp176
F282.694599280296
aF15.586206896551724
aag176
ag176
a(lp177
F280.7635647975374
aF12.275862068965516
aag177
a(lp178
F281.7290820389167
aF10.068965517241379
aag178
a(lp179
F291.93597859064084
aF8.0
aag179
a(lp180
F297.7290820389167
aF9.517241379310345
aag180
a(lp181
F300.07390962512363
aF11.724137931034482
aag181
ag181
a(lp182
F302.5566682458133
aF18.482758620689655
aag182
a(lp183
F302.8325303147788
aF22.89655172413793
aag183
a(lp184
F302.142875142365
aF24.0
aag184
ag184
a(lp185
F301.4532199699512
aF23.03448275862069
aag185
a(lp186
F299.8325303147788
aF27.004524886877828
aag186
a(lp187
F301.2442950206612
aF30.3710407239819
aag187
ag187
a(lp188
F304.82800542790096
aF32.0
aag188
ag188
a(lp189
F310.2578696812946
aF31.56561085972851
aag189
a(lp190
F312.86420452292356
aF29.936651583710407
aag190
a(lp191
F315.25334479441676
aF25.15837104072398
aag191
a(lp192
F315.5791366496204
aF8.0
aag192
a(lp193
F323.3811168476402
aF20.198019801980198
aag193
a(lp194
F327.9751762535808
aF19.247524752475247
aag194
a(lp195
F328.7672554615016
aF15.92079207920792
aag195
a(lp196
F326.8662653624917
aF13.06930693069307
aag196
a(lp197
F319.5791366496204
aF8.158415841584159
aag197
ag197
a(lp198
F347.7771564516006
aF10.693069306930694
aag198
a(lp199
F351.73755249120455
aF11.485148514851485
aag199
a(lp200
F353.16329506546197
aF24.0
aag200
a(lp201
F358.1538109591566
aF8.0
aag201
a(lp202
F357.4801267486303
aF15.410526315789474
aag202
a(lp203
F360.5117056959987
aF20.46315789473684
aag203
ag203
ag203
a(lp204
F369.606442538104
aF24.0
aag204
a(lp205
F375.83802148547244
aF22.652631578947368
aag205
a(lp206
F379.0380214854724
aF19.11578947368421
aag206
a(lp207
F379.88012674863035
aF12.042105263157895
aag207
a(lp208
F376.34328464336716
aF10.863157894736842
aag208
a(lp209
F373.14328464336717
aF13.726315789473684
aag209
a(lp210
F372.806442538104
aF18.273684210526316
aag210
a(lp211
F383.7538109591566
aF22.989473684210527
aag211
a(lp212
F388.4696004328408
aF22.652631578947368
aag212
ag212
a(lp213
F392.1748635907356
aF19.621052631578948
aag213
a(lp214
F394.86960043284085
aF14.568421052631578
aag214
a(lp215
F395.0380214854724
aF13.052631578947368
aag215
a(lp216
F392.34328464336716
aF10.694736842105263
aag216
a(lp217
F392.0380214854724
aF27.004524886877828
aag217
a(lp218
F393.4497861913548
aF30.3710407239819
aag218
a(lp219
F397.0334965985946
aF32.0
aag219
a(lp220
F402.4633608519882
aF31.56561085972851
aag220
a(lp221
F405.0696956936172
aF29.936651583710407
aag221
a(lp222
F407.45883596511044
aF25.15837104072398
aag222
a(lp223
F407.78462782031403
aF8.0
aag223
a(lp224
F415.58660801833383
aF20.198019801980198
aag224
a(lp225
F420.1806674242744
aF19.247524752475247
aag225
a(lp226
F420.9727466321952
aF15.92079207920792
aag226
a(lp227
F412.5767070282348
aF8.0
aag227
a(lp228
F443.6262119787299
aF11.326732673267326
aag228
a(lp229
F445.36878623615564
aF24.0
aag229
a(lp230
F-1.0
aF-1.0
aag230
a(lp231
F423.3489842559576
aF8.031683168316832
aag231
ag231
a(lp232
F425.7173010876408
aF7.31089108910891
aag232
ag232
a(lp233
F426.2321525727893
aF5.148514851485149
aag233
a(lp234
F420.77472683021506
aF0.0
aag234
a(lp235
F440.95690504803684
aF2.1623762376237625
aag235
a(lp236
F442.08957831536355
aF10.4
aag236
a(lp237
F445.92561791932394
aF27.2
aag237
a(lp238
F447.2056179193239
aF24.96
aag238
a(lp239
F450.4056179193239
aF24.0
aag239
a(lp240
F452.1656179193239
aF25.28
aag240
a(lp241
F452.3256179193239
aF27.44
aag241
ag241
ag241
a.