(lp0
(lp1
F2.1743119266055047
aF9.61467889908257
aag1
ag1
ag1
a(lp2
F1.2935779816513762
aF19.30275229357798
aag2
ag2
ag2
a(lp3
F14.504587155963304
aF24.0
aag3
ag3
a(lp4
F21.990825688073397
aF23.26605504587156
aag4
ag4
ag4
a(lp5
F24.926605504587158
aF21.211009174311926
aag5
ag5
ag5
a(lp6
F23.752293577981654
aF17.98165137614679
aag6
ag6
a(lp7
F17.440366972477065
aF14.1651376146789
aag7
ag7
a(lp8
F25.07339449541285
aF15.339449541284404
aag8
ag8
ag8
a(lp9
F26.688073394495415
aF11.082568807339449
aag9
ag9
a(lp10
F22.284403669724774
aF8.0
aag10
ag10
a(lp11
F18.321100917431195
aF8.293577981651376
aag11
ag11
a(lp12
F16.11926605504587
aF9.46788990825688
aag12
ag12
ag12
a(lp13
F15.825688073394495
aF15.926605504587156
aag13
ag13
a(lp14
F17.587155963302752
aF19.449541284403672
aag14
ag14
a(lp15
F23.01834862385321
aF22.091743119266056
aag15
ag15
a(lp16
F27.568807339449542
aF23.412844036697248
aag16
ag16
a(lp17
F30.21100917431193
aF22.38532110091743
aag17
ag17
a(lp18
F32.706422018348626
aF10.055045871559633
aag18
ag18
ag18
a(lp19
F32.706422018348626
aF17.100917431192663
aag19
ag19
ag19
a(lp20
F38.137614678899084
aF22.091743119266056
aag20
ag20
ag20
a(lp21
F47.67889908256881
aF23.412844036697248
aag21
ag21
a(lp22
F50.61467889908257
aF21.944954128440365
aag22
ag22
ag22
ag22
a(lp23
F52.669724770642205
aF18.275229357798167
aag23
ag23
a(lp24
F53.69724770642202
aF11.522935779816514
aag24
ag24
ag24
a(lp25
F51.788990825688074
aF9.027522935779817
aag25
ag25
a(lp26
F48.11926605504588
aF8.587155963302752
aag26
ag26
a(lp27
F46.79816513761469
aF9.761467889908257
aag27
ag27
a(lp28
F46.79816513761469
aF13.724770642201836
aag28
ag28
a(lp29
F50.61467889908257
aF17.98165137614679
aag29
ag29
ag29
a(lp30
F58.51772090777403
aF8.0
aag30
ag30
a(lp31
F57.84403669724771
aF15.410526315789474
aag31
ag31
a(lp32
F60.87561564461613
aF20.46315789473684
aag32
ag32
a(lp33
F69.9703524867214
aF24.0
aag33
ag33
a(lp34
F76.20193143408981
aF22.652631578947368
aag34
ag34
a(lp35
F79.40193143408982
aF19.11578947368421
aag35
ag35
a(lp36
F80.24403669724771
aF12.042105263157895
aag36
ag36
a(lp37
F76.70719459198455
aF10.863157894736842
aag37
ag37
a(lp38
F73.50719459198456
aF13.726315789473684
aag38
ag38
a(lp39
F73.1703524867214
aF18.273684210526316
aag39
ag39
a(lp40
F84.11772090777403
aF22.989473684210527
aag40
ag40
ag40
a(lp41
F88.83351038145824
aF22.652631578947368
aag41
ag41
ag41
a(lp42
F92.53877353935297
aF19.621052631578948
aag42
ag42
ag42
a(lp43
F95.23351038145825
aF14.568421052631578
aag43
ag43
ag43
a(lp44
F95.40193143408982
aF13.052631578947368
aag44
ag44
a(lp45
F92.70719459198455
aF10.694736842105263
aag45
ag45
ag45
a(lp46
F92.40193143408982
aF27.004524886877828
aag46
ag46
a(lp47
F93.81369613997217
aF30.3710407239819
aag47
ag47
a(lp48
F97.39740654721199
aF32.0
aag48
ag48
a(lp49
F102.82727080060566
aF31.56561085972851
aag49
ag49
a(lp50
F105.43360564223461
aF29.936651583710407
aag50
ag50
a(lp51
F107.82274591372783
aF25.15837104072398
aag51
ag51
a(lp52
F108.14853776893145
aF8.0
aag52
ag52
a(lp53
F118.712640333034
aF8.820512820512821
aag53
ag53
ag53
ag53
a(lp54
F113.37930699970067
aF10.666666666666666
aag54
ag54
ag54
ag54
a(lp55
F112.14853776893145
aF14.76923076923077
aag55
ag55
a(lp56
F113.17417879457247
aF19.48717948717949
aag56
ag56
ag56
a(lp57
F117.07161469200837
aF21.94871794871795
aag57
ag57
a(lp58
F126.5075121279058
aF24.0
aag58
ag58
a(lp59
F130.8152044355981
aF22.358974358974358
aag59
ag59
ag59
a(lp60
F132.86648648688015
aF10.051282051282051
aag60
ag60
a(lp61
F132.04597366636733
aF9.64102564102564
aag61
ag61
a(lp62
F132.45623007662374
aF19.897435897435898
aag62
ag62
a(lp63
F137.78956340995708
aF22.358974358974358
aag63
ag63
a(lp64
F142.9177685381622
aF22.564102564102562
aag64
ag64
a(lp65
F147.63571725611092
aF16.0
aag65
ag65
a(lp66
F147.84084546123913
aF9.025641025641026
aag66
ag66
ag66
a(lp67
F145.3596991565634
aF21.176470588235293
aag67
ag67
a(lp68
F151.94793445068106
aF24.0
aag68
ag68
a(lp69
F155.86950307813203
aF23.529411764705884
aag69
ag69
ag69
a(lp70
F157.43813052911244
aF21.80392156862745
aag70
ag70
ag70
a(lp71
F154.9283266075438
aF16.627450980392158
aag71
ag71
a(lp72
F148.9675422938183
aF13.647058823529411
aag72
ag72
a(lp73
F155.08518935264183
aF13.176470588235293
aag73
ag73
a(lp74
F159.3204834702889
aF10.03921568627451
aag74
ag74
a(lp75
F161.3596991565634
aF5.96078431372549
aag75
ag75
a(lp76
F160.57538543107322
aF2.196078431372549
aag76
ag76
ag76
a(lp77
F153.67342464675949
aF0.0
aag77
ag77
a(lp78
F148.02636582323007
aF1.2549019607843137
aag78
ag78
a(lp79
F145.20283641146537
aF7.686274509803922
aag79
ag79
a(lp80
F149.90871876440656
aF10.823529411764707
aag80
ag80
ag80
a(lp81
F170.8170634976487
aF20.155038759689923
aag81
ag81
a(lp82
F170.8170634976487
aF19.162790697674417
aag82
ag82
a(lp83
F172.9255906294316
aF19.03875968992248
aag83
ag83
a(lp84
F177.3907069085014
aF21.767441860465116
aag84
ag84
a(lp85
F175.40621078447037
aF24.0
aag85
ag85
a(lp86
F172.80155962167967
aF24.0
aag86
ag86
a(lp87
F166.6000092340828
aF20.031007751937985
aag87
ag87
a(lp88
F165.3596991565634
aF13.829457364341085
aag88
ag88
a(lp89
F167.46822628834636
aF10.604651162790699
aag89
ag89
a(lp90
F174.165900706951
aF8.0
aag90
ag90
ag90
a(lp91
F176.150396830982
aF8.992248062015504
aag91
ag91
a(lp92
F176.64652086198976
aF11.5968992248062
aag92
ag92
ag92
ag92
a(lp93
F170.8170634976487
aF12.589147286821706
aag93
ag93
a(lp94
F185.44404024183473
aF23.36
aag94
ag94
a(lp95
F182.56404024183473
aF23.14666666666667
aag95
ag95
a(lp96
F181.3907069085014
aF19.093333333333334
aag96
ag96
a(lp97
F182.45737357516805
aF13.546666666666667
aag97
ag97
ag97
ag97
a(lp98
F185.2307069085014
aF10.026666666666667
aag98
ag98
a(lp99
F188.11070690850138
aF9.6
aag99
ag99
a(lp100
F190.99070690850138
aF11.626666666666667
aag100
ag100
a(lp101
F192.37737357516806
aF21.759999999999998
aag101
ag101
a(lp102
F194.61737357516805
aF23.573333333333334
aag102
ag102
ag102
ag102
a(lp103
F206.35070690850137
aF21.333333333333336
aag103
ag103
ag103
a(lp104
F208.8040402418347
aF15.893333333333334
aag104
ag104
a(lp105
F207.73737357516805
aF11.306666666666667
aag105
ag105
a(lp106
F204.9640402418347
aF8.64
aag106
ag106
a(lp107
F201.33737357516804
aF8.213333333333333
aag107
ag107
a(lp108
F200.69737357516806
aF10.666666666666666
aag108
ag108
ag108
a(lp109
F202.5107069085014
aF15.466666666666667
aag109
ag109
a(lp110
F213.9129511329238
aF9.10891089108911
aag110
ag110
a(lp111
F212.8040402418347
aF12.118811881188119
aag111
ag111
a(lp112
F219.45750558836937
aF15.762376237623762
aag112
ag112
a(lp113
F222.30899073688423
aF15.128712871287128
aag113
ag113
a(lp114
F224.05156499430996
aF12.594059405940595
aag114
ag114
a(lp115
F222.7842382616367
aF8.950495049504951
aag115
ag115
a(lp116
F220.091168954706
aF8.0
aag116
ag116
ag116
ag116
a(lp117
F253.9921590537159
aF9.425742574257425
aag117
ag117
ag117
a(lp118
F254.94265410322086
aF13.06930693069307
aag118
ag118
a(lp119
F252.72483232104264
aF17.504950495049506
aag119
ag119
a(lp120
F247.33869370718125
aF18.13861386138614
aag120
ag120
a(lp121
F238.46740657846837
aF15.762376237623762
aag121
ag121
ag121
ag121
a(lp122
F236.40800063787432
aF16.554455445544555
aag122
ag122
ag122
a(lp123
F234.34859469728025
aF21.148514851485146
aag123
ag123
a(lp124
F236.88324816262678
aF24.0
aag124
ag124
ag124
a(lp125
F238.46740657846837
aF20.356435643564357
aag125
ag125
a(lp126
F239.41790162797332
aF10.85148514851485
aag126
ag126
a(lp127
F262.58621845965655
aF8.158415841584159
aag127
ag127
a(lp128
F259.8931491527258
aF12.435643564356436
aag128
ag128
a(lp129
F258.9426541032209
aF18.13861386138614
aag129
ag129
a(lp130
F259.4179016279734
aF20.99009900990099
aag130
ag130
a(lp131
F263.061465984409
aF23.207920792079207
aag131
ag131
a(lp132
F270.50701053886445
aF24.0
aag132
ag132
a(lp133
F276.05156499431
aF23.04950495049505
aag133
ag133
a(lp134
F281.7545352913397
aF20.198019801980198
aag134
ag134
a(lp135
F283.4971095487655
aF17.18811881188119
aag135
ag135
a(lp136
F282.8634461824288
aF10.534653465346535
aag136
ag136
ag136
a(lp137
F278.58621845965655
aF8.0
aag137
ag137
a(lp138
F282.5466144992605
aF8.950495049504951
aag138
ag138
a(lp139
F303.1406739052011
aF8.158415841584159
aag139
ag139
a(lp140
F304.2495847962902
aF9.10891089108911
aag140
ag140
a(lp141
F303.6159214299536
aF11.96039603960396
aag141
ag141
a(lp142
F301.5565154893595
aF17.980198019801982
aag142
ag142
a(lp143
F299.81394123193377
aF19.247524752475247
aag143
ag143
ag143
a(lp144
F301.5633102864863
aF21.176470588235293
aag144
ag144
a(lp145
F308.1515455806039
aF24.0
aag145
ag145
ag145
a(lp146
F312.0731142080549
aF23.529411764705884
aag146
ag146
a(lp147
F313.6417416590353
aF21.80392156862745
aag147
ag147
a(lp148
F311.13193773746667
aF16.627450980392158
aag148
ag148
ag148
ag148
a(lp149
F305.1711534237412
aF13.647058823529411
aag149
ag149
ag149
a(lp150
F311.28880048256474
aF13.176470588235293
aag150
ag150
a(lp151
F315.52409460021175
aF10.03921568627451
aag151
ag151
a(lp152
F317.5633102864863
aF5.96078431372549
aag152
ag152
a(lp153
F316.77899656099606
aF2.196078431372549
aag153
ag153
a(lp154
F309.87703577668236
aF0.0
aag154
ag154
a(lp155
F304.22997695315297
aF1.2549019607843137
aag155
ag155
a(lp156
F301.4064475413883
aF7.686274509803922
aag156
ag156
a(lp157
F306.11232989432943
aF10.823529411764707
aag157
ag157
ag157
a(lp158
F323.3918817150577
aF8.0
aag158
ag158
a(lp159
F321.677596000772
aF9.485714285714286
aag159
ag159
ag159
a(lp160
F322.13473885791484
aF11.657142857142857
aag160
ag160
ag160
a(lp161
F325.10616742934343
aF11.542857142857143
aag161
ag161
a(lp162
F323.16331028648625
aF8.571428571428571
aag162
ag162
a(lp163
F324.9918817150577
aF8.685714285714285
aag163
ag163
ag163
a.