(lp0
(lp1
F1.6736842105263159
aF8.0
aag1
ag1
ag1
ag1
a(lp2
F1.0
aF15.410526315789474
aag2
ag2
ag2
ag2
a(lp3
F4.031578947368422
aF20.46315789473684
aag3
ag3
ag3
ag3
a(lp4
F13.126315789473685
aF24.0
aag4
ag4
ag4
ag4
a(lp5
F19.35789473684211
aF22.652631578947368
aag5
ag5
ag5
ag5
a(lp6
F22.55789473684211
aF19.11578947368421
aag6
ag6
ag6
ag6
a(lp7
F23.400000000000002
aF12.042105263157895
aag7
ag7
ag7
ag7
a(lp8
F19.863157894736844
aF10.863157894736842
aag8
ag8
ag8
ag8
a(lp9
F16.66315789473684
aF13.726315789473684
aag9
ag9
ag9
ag9
a(lp10
F16.326315789473686
aF18.273684210526316
aag10
ag10
ag10
ag10
a(lp11
F27.27368421052632
aF22.989473684210527
aag11
ag11
ag11
ag11
a(lp12
F31.98947368421053
aF22.652631578947368
aag12
ag12
ag12
ag12
a(lp13
F35.694736842105264
aF19.621052631578948
aag13
ag13
ag13
ag13
a(lp14
F38.38947368421053
aF14.568421052631578
aag14
ag14
ag14
ag14
a(lp15
F38.55789473684211
aF13.052631578947368
aag15
ag15
ag15
ag15
a(lp16
F35.863157894736844
aF10.694736842105263
aag16
ag16
ag16
ag16
ag16
a(lp17
F49.38592021454912
aF17.477707006369428
aag17
ag17
ag17
ag17
a(lp18
F46.12477371773383
aF17.477707006369428
aag18
ag18
ag18
ag18
a(lp19
F45.92095206168287
aF18.70063694267516
aag19
ag19
ag19
ag19
a(lp20
F50.8126718069058
aF22.980891719745223
aag20
ag20
ag20
ag20
a(lp21
F56.51967817633255
aF23.898089171974522
aag21
ag21
ag21
ag21
a(lp22
F59.475092189071404
aF21.554140127388536
aag22
ag22
ag22
ag22
ag22
a(lp23
F58.45598390881663
aF17.783439490445858
aag23
ag23
ag23
ag23
a(lp24
F56.11203486423064
aF15.439490445859873
aag24
ag24
ag24
ag24
a(lp25
F51.32222594703319
aF13.401273885350317
aag25
ag25
ag25
ag25
a(lp26
F49.691652698625546
aF14.624203821656051
aag26
ag26
ag26
ag26
a(lp27
F53.462353335568224
aF13.503184713375795
aag27
ag27
ag27
ag27
a(lp28
F51.42413677505867
aF10.038216560509554
aag28
ag28
ag28
ag28
a(lp29
F45.10566543747905
aF9.121019108280255
aag29
ag29
ag29
ag29
a(lp30
F42.55789473684211
aF12.38216560509554
aag30
ag30
ag30
ag30
a(lp31
F49.8954743546765
aF16.45859872611465
aag31
ag31
ag31
ag31
a(lp32
F58.761716392893064
aF16.76433121019108
aag32
ag32
ag32
ag32
a(lp33
F61.92095206168287
aF14.624203821656051
aag33
ag33
ag33
ag33
a(lp34
F61.30948709353
aF12.484076433121018
aag34
ag34
ag34
ag34
a(lp35
F54.37955078779752
aF8.0
aag35
ag35
ag35
ag35
a(lp36
F68.42095206168287
aF24.0
aag36
ag36
ag36
ag36
ag36
a(lp37
F65.92095206168287
aF18.0
aag37
ag37
ag37
ag37
ag37
a(lp38
F66.42095206168287
aF14.75
aag38
ag38
ag38
ag38
a(lp39
F68.17095206168287
aF13.0
aag39
ag39
ag39
ag39
ag39
a(lp40
F77.92095206168287
aF13.125
aag40
ag40
ag40
ag40
a(lp41
F81.29595206168287
aF18.0
aag41
ag41
ag41
ag41
a(lp42
F80.29595206168287
aF20.125
aag42
ag42
ag42
ag42
a(lp43
F79.67095206168287
aF17.875
aag43
ag43
ag43
ag43
a(lp44
F81.04595206168287
aF8.875
aag44
ag44
ag44
ag44
a(lp45
F71.29595206168287
aF8.625
aag45
ag45
ag45
ag45
a(lp46
F78.54595206168287
aF27.004524886877828
aag46
ag46
ag46
ag46
a(lp47
F79.95771676756522
aF30.3710407239819
aag47
ag47
ag47
ag47
a(lp48
F83.54142717480504
aF32.0
aag48
ag48
ag48
ag48
a(lp49
F88.97129142819871
aF31.56561085972851
aag49
ag49
ag49
ag49
ag49
a(lp50
F91.57762626982766
aF29.936651583710407
aag50
ag50
ag50
ag50
a(lp51
F93.96676654132088
aF25.15837104072398
aag51
ag51
ag51
ag51
ag51
a(lp52
F94.2925583965245
aF8.0
aag52
ag52
ag52
ag52
ag52
a(lp53
F102.785709081456
aF18.73972602739726
aag53
ag53
ag53
ag53
a(lp54
F105.30625702666148
aF23.123287671232877
aag54
ag54
ag54
ag54
a(lp55
F108.15557209515464
aF23.89041095890411
aag55
ag55
ag55
ag55
a(lp56
F109.6898186704971
aF20.93150684931507
aag56
ag56
ag56
ag56
a(lp57
F108.48433921844232
aF15.780821917808218
aag57
ag57
ag57
ag57
a(lp58
F103.44324332803134
aF9.424657534246576
aag58
ag58
ag58
ag58
a(lp59
F100.81310634172998
aF8.438356164383562
aag59
ag59
ag59
ag59
a(lp60
F98.84050360200395
aF10.082191780821917
aag60
ag60
ag60
ag60
a(lp61
F98.84050360200395
aF13.698630136986301
aag61
ag61
ag61
ag61
a(lp62
F101.6898186704971
aF15.013698630136986
aag62
ag62
ag62
ag62
a(lp63
F104.75831182118203
aF13.808219178082192
aag63
ag63
ag63
ag63
a(lp64
F111.11447620474368
aF8.0
aag64
ag64
ag64
ag64
a(lp65
F115.60762688967519
aF13.150684931506849
aag65
ag65
ag65
ag65
a(lp66
F119.0048871636478
aF20.383561643835616
aag66
ag66
ag66
ag66
a(lp67
F116.31861265384387
aF21.176470588235293
aag67
ag67
ag67
ag67
a(lp68
F122.90684794796152
aF24.0
aag68
ag68
ag68
ag68
a(lp69
F126.8284165754125
aF23.529411764705884
aag69
ag69
ag69
ag69
a(lp70
F128.3970440263929
aF21.80392156862745
aag70
ag70
ag70
ag70
a(lp71
F125.88724010482426
aF16.627450980392158
aag71
ag71
ag71
ag71
a(lp72
F119.92645579109877
aF13.647058823529411
aag72
ag72
ag72
ag72
ag72
a(lp73
F126.0441028499223
aF13.176470588235293
aag73
ag73
ag73
ag73
a(lp74
F130.27939696756937
aF10.03921568627451
aag74
ag74
ag74
ag74
ag74
a(lp75
F132.31861265384387
aF5.96078431372549
aag75
ag75
ag75
ag75
a(lp76
F131.53429892835368
aF2.196078431372549
aag76
ag76
ag76
ag76
a(lp77
F124.63233814403995
aF0.0
aag77
ag77
ag77
ag77
a(lp78
F118.98527932051054
aF1.2549019607843137
aag78
ag78
ag78
ag78
ag78
a(lp79
F116.16174990874583
aF7.686274509803922
aag79
ag79
ag79
ag79
a(lp80
F120.867632261687
aF10.823529411764707
aag80
ag80
ag80
ag80
a(lp81
F145.1519459871772
aF19.666666666666664
aag81
ag81
ag81
ag81
a(lp82
F146.31861265384387
aF21.5
aag82
ag82
ag82
ag82
a(lp83
F150.1519459871772
aF19.0
aag83
ag83
ag83
ag83
a(lp84
F151.1519459871772
aF16.833333333333336
aag84
ag84
ag84
ag84
a(lp85
F148.1519459871772
aF12.333333333333332
aag85
ag85
ag85
ag85
a(lp86
F142.48527932051053
aF11.166666666666666
aag86
ag86
ag86
ag86
a(lp87
F137.98527932051053
aF12.333333333333332
aag87
ag87
ag87
ag87
a(lp88
F136.31861265384387
aF17.333333333333336
aag88
ag88
ag88
ag88
a(lp89
F139.6519459871772
aF21.5
aag89
ag89
ag89
ag89
a(lp90
F143.31861265384387
aF23.333333333333336
aag90
ag90
ag90
ag90
a(lp91
F153.48527932051053
aF23.666666666666664
aag91
ag91
ag91
ag91
a(lp92
F163.31861265384387
aF18.833333333333336
aag92
ag92
ag92
ag92
ag92
a(lp93
F165.48527932051053
aF16.166666666666664
aag93
ag93
ag93
ag93
ag93
ag93
a(lp94
F165.1519459871772
aF12.666666666666668
aag94
ag94
ag94
ag94
a(lp95
F160.31861265384387
aF8.666666666666666
aag95
ag95
ag95
ag95
a(lp96
F155.6519459871772
aF8.0
aag96
ag96
ag96
ag96
a(lp97
F180.67575551098673
aF21.6
aag97
ag97
ag97
ag97
a(lp98
F179.07575551098674
aF24.0
aag98
ag98
ag98
ag98
a(lp99
F176.33289836812958
aF23.65714285714286
aag99
ag99
ag99
ag99
a(lp100
F173.01861265384386
aF21.485714285714288
aag100
ag100
ag100
ag100
a(lp101
F171.41861265384387
aF18.057142857142857
aag101
ag101
ag101
ag101
a(lp102
F171.76146979670102
aF16.685714285714283
aag102
ag102
ag102
ag102
a(lp103
F178.39004122527245
aF14.285714285714285
aag103
ag103
ag103
ag103
a(lp104
F179.6471840824153
aF10.17142857142857
aag104
ag104
ag104
ag104
a(lp105
F175.76146979670102
aF8.0
aag105
ag105
ag105
ag105
a(lp106
F169.81861265384387
aF9.942857142857143
aag106
ag106
ag106
ag106
a.