(lp0
(lp1
F2.1294117647058823
aF17.411764705882355
aag1
a(lp2
F1.3764705882352941
aF11.388235294117647
aag2
a(lp3
F1.5647058823529412
aF19.482352941176472
aag3
a(lp4
F6.2705882352941185
aF23.152941176470588
aag4
ag4
ag4
a(lp5
F14.552941176470588
aF23.71764705882353
aag5
ag5
a(lp6
F19.91764705882353
aF20.894117647058824
aag6
ag6
ag6
ag6
a(lp7
F11.352941176470589
aF15.71764705882353
aag7
a(lp8
F18.788235294117648
aF13.458823529411765
aag8
ag8
ag8
ag8
a(lp9
F19.63529411764706
aF11.670588235294117
aag9
ag9
ag9
ag9
a(lp10
F18.694117647058825
aF9.505882352941176
aag10
a(lp11
F14.929411764705883
aF8.0
aag11
ag11
ag11
a(lp12
F11.352941176470589
aF9.31764705882353
aag12
ag12
ag12
a(lp13
F24.82330743618202
aF18.867924528301884
aag13
a(lp14
F24.21953385127636
aF23.69811320754717
aag14
ag14
a(lp15
F39.91764705882353
aF24.0
aag15
ag15
ag15
a(lp16
F45.955382907880136
aF21.28301886792453
aag16
a(lp17
F48.06859045504994
aF17.056603773584904
aag17
ag17
a(lp18
F45.04972253052164
aF12.226415094339622
aag18
a(lp19
F29.351609322974472
aF8.0
aag19
ag19
ag19
a(lp20
F54.41341804125684
aF11.586206896551724
aag20
a(lp21
F52.620314592980975
aF13.793103448275861
aag21
ag21
a(lp22
F52.34445252401546
aF18.482758620689655
aag22
ag22
a(lp23
F61.585831834360285
aF23.17241379310345
aag23
ag23
a(lp24
F71.79272838608442
aF23.586206896551722
aag24
a(lp25
F78.27548700677407
aF20.275862068965516
aag25
a(lp26
F80.34445252401545
aF15.03448275862069
aag26
a(lp27
F78.27548700677407
aF8.551724137931034
aag27
ag27
ag27
a(lp28
F70.8272111447051
aF8.275862068965518
aag28
a(lp29
F67.93065942056718
aF11.586206896551724
aag29
a(lp30
F68.75824562746374
aF14.344827586206897
aag30
a(lp31
F85.01813673454177
aF8.0
aag31
a(lp32
F84.34445252401545
aF15.410526315789474
aag32
ag32
a(lp33
F87.37603147138387
aF20.46315789473684
aag33
a(lp34
F96.47076831348915
aF24.0
aag34
a(lp35
F102.70234726085756
aF22.652631578947368
aag35
a(lp36
F105.90234726085757
aF19.11578947368421
aag36
a(lp37
F106.74445252401546
aF12.042105263157895
aag37
a(lp38
F103.2076104187523
aF10.863157894736842
aag38
a(lp39
F100.0076104187523
aF13.726315789473684
aag39
a(lp40
F99.67076831348913
aF18.273684210526316
aag40
ag40
ag40
a(lp41
F110.61813673454178
aF22.989473684210527
aag41
a(lp42
F115.33392620822599
aF22.652631578947368
aag42
a(lp43
F119.03918936612072
aF19.621052631578948
aag43
ag43
a(lp44
F121.733926208226
aF14.568421052631578
aag44
ag44
ag44
a(lp45
F121.90234726085757
aF13.052631578947368
aag45
a(lp46
F119.2076104187523
aF10.694736842105263
aag46
a(lp47
F121.20234726085756
aF22.2
aag47
ag47
a(lp48
F118.90234726085757
aF23.8
aag48
a(lp49
F120.00234726085756
aF29.9
aag49
a(lp50
F125.40234726085757
aF32.0
aag50
ag50
ag50
ag50
a(lp51
F127.10234726085757
aF31.9
aag51
ag51
a(lp52
F128.20234726085758
aF30.1
aag52
ag52
a(lp53
F125.10234726085757
aF8.0
aag53
ag53
ag53
a(lp54
F136.7954979457891
aF18.73972602739726
aag54
ag54
a(lp55
F139.31604589099456
aF23.123287671232877
aag55
ag55
ag55
a(lp56
F142.1653609594877
aF23.89041095890411
aag56
a(lp57
F143.6996075348302
aF20.93150684931507
aag57
ag57
a(lp58
F142.49412808277538
aF15.780821917808218
aag58
a(lp59
F137.45303219236442
aF9.424657534246576
aag59
ag59
a(lp60
F134.82289520606307
aF8.438356164383562
aag60
ag60
a(lp61
F132.85029246633704
aF10.082191780821917
aag61
ag61
a(lp62
F132.85029246633704
aF13.698630136986301
aag62
ag62
ag62
a(lp63
F135.69960753483016
aF15.013698630136986
aag63
ag63
ag63
a(lp64
F138.76810068551512
aF13.808219178082192
aag64
a(lp65
F145.12426506907676
aF8.0
aag65
ag65
a(lp66
F149.61741575400828
aF13.150684931506849
aag66
ag66
ag66
ag66
ag66
a(lp67
F153.01467602798087
aF20.383561643835616
aag67
a(lp68
F165.8480093613142
aF19.666666666666664
aag68
ag68
ag68
a(lp69
F167.01467602798087
aF21.5
aag69
a(lp70
F170.8480093613142
aF19.0
aag70
ag70
a(lp71
F171.8480093613142
aF16.833333333333336
aag71
ag71
ag71
a(lp72
F168.8480093613142
aF12.333333333333332
aag72
a(lp73
F163.18134269464753
aF11.166666666666666
aag73
a(lp74
F158.68134269464753
aF12.333333333333332
aag74
a(lp75
F157.01467602798087
aF17.333333333333336
aag75
a(lp76
F160.3480093613142
aF21.5
aag76
ag76
a(lp77
F164.01467602798087
aF23.333333333333336
aag77
a(lp78
F174.18134269464753
aF23.666666666666664
aag78
a(lp79
F184.01467602798087
aF18.833333333333336
aag79
a(lp80
F186.18134269464753
aF16.166666666666664
aag80
ag80
a(lp81
F185.8480093613142
aF12.666666666666668
aag81
ag81
a(lp82
F181.01467602798087
aF8.666666666666666
aag82
a(lp83
F176.3480093613142
aF8.0
aag83
a(lp84
F192.85950361418776
aF11.586206896551724
aag84
ag84
a(lp85
F191.06640016591192
aF13.793103448275861
aag85
ag85
a(lp86
F190.7905380969464
aF18.482758620689655
aag86
a(lp87
F200.03191740729122
aF23.17241379310345
aag87
a(lp88
F210.23881395901535
aF23.586206896551722
aag88
a(lp89
F216.72157257970503
aF20.275862068965516
aag89
ag89
a(lp90
F218.7905380969464
aF15.03448275862069
aag90
ag90
a(lp91
F216.72157257970503
aF8.551724137931034
aag91
a(lp92
F209.27329671763604
aF8.275862068965518
aag92
a(lp93
F206.3767449934981
aF11.586206896551724
aag93
ag93
a(lp94
F207.20433120039468
aF14.344827586206897
aag94
a(lp95
F226.5925182949662
aF20.198019801980198
aag95
ag95
a(lp96
F231.18657770090678
aF19.247524752475247
aag96
a(lp97
F231.97865690882756
aF15.92079207920792
aag97
a(lp98
F223.58261730486717
aF8.0
aag98
a(lp99
F254.63212225536222
aF11.326732673267326
aag99
a(lp100
F256.374696512788
aF24.0
aag100
a(lp101
F-1.0
aF-1.0
aag101
ag101
ag101
a(lp102
F234.35489453258995
aF8.031683168316832
aag102
ag102
ag102
a(lp103
F236.7232113642731
aF7.31089108910891
aag103
ag103
ag103
a(lp104
F237.23806284942162
aF5.148514851485149
aag104
a(lp105
F231.78063710684737
aF0.0
aag105
ag105
ag105
a(lp106
F251.96281532466915
aF2.1623762376237625
aag106
ag106
ag106
a(lp107
F253.0954885919959
aF10.4
aag107
ag107
ag107
a(lp108
F261.9222974267255
aF8.0
aag108
a(lp109
F260.69152819595627
aF13.415384615384616
aag109
ag109
ag109
a(lp110
F261.4299897344178
aF20.06153846153846
aag110
ag110
a(lp111
F262.66075896518703
aF21.784615384615385
aag111
a(lp112
F269.3069128113409
aF22.76923076923077
aag112
a(lp113
F270.2915281959563
aF24.0
aag113
a(lp114
F273.24537434980243
aF21.046153846153846
aag114
ag114
a(lp115
F274.47614358057166
aF10.215384615384615
aag115
a(lp116
F275.20845127287936
aF27.2
aag116
ag116
a(lp117
F276.48845127287933
aF24.96
aag117
ag117
ag117
a(lp118
F279.6884512728793
aF24.0
aag118
a(lp119
F281.4484512728793
aF25.28
aag119
ag119
ag119
a(lp120
F281.60845127287934
aF27.44
aag120
ag120
ag120
a(lp121
F286.83922050364856
aF8.0
aag121
ag121
ag121
a(lp122
F285.60845127287934
aF13.415384615384616
aag122
ag122
ag122
a(lp123
F286.34691281134087
aF20.06153846153846
aag123
ag123
ag123
a(lp124
F287.5776820421101
aF21.784615384615385
aag124
a(lp125
F294.223835888264
aF22.76923076923077
aag125
ag125
a(lp126
F295.20845127287936
aF24.0
aag126
ag126
ag126
ag126
a(lp127
F298.1622974267255
aF21.046153846153846
aag127
ag127
a(lp128
F299.3930666574947
aF10.215384615384615
aag128
ag128
a(lp129
F296.8853743498024
aF27.004524886877828
aag129
a(lp130
F298.2971390556848
aF30.3710407239819
aag130
ag130
a(lp131
F301.8808494629246
aF32.0
aag131
ag131
a(lp132
F307.3107137163182
aF31.56561085972851
aag132
a(lp133
F309.91704855794717
aF29.936651583710407
aag133
ag133
a(lp134
F312.30618882944043
aF25.15837104072398
aag134
a(lp135
F312.631980684644
aF8.0
aag135
ag135
a(lp136
F321.1251313695755
aF18.73972602739726
aag136
a(lp137
F323.645679314781
aF23.123287671232877
aag137
ag137
ag137
a(lp138
F326.49499438327416
aF23.89041095890411
aag138
ag138
a(lp139
F328.0292409586166
aF20.93150684931507
aag139
ag139
a(lp140
F326.8237615065618
aF15.780821917808218
aag140
a(lp141
F321.78266561615084
aF9.424657534246576
aag141
ag141
a(lp142
F319.1525286298495
aF8.438356164383562
aag142
a(lp143
F317.17992589012346
aF10.082191780821917
aag143
ag143
a(lp144
F317.17992589012346
aF13.698630136986301
aag144
ag144
ag144
a(lp145
F320.02924095861664
aF15.013698630136986
aag145
ag145
ag145
ag145
a(lp146
F323.09773410930154
aF13.808219178082192
aag146
ag146
ag146
a(lp147
F329.4538984928632
aF8.0
aag147
ag147
ag147
a(lp148
F333.94704917779467
aF13.150684931506849
aag148
ag148
a(lp149
F337.3443094517673
aF20.383561643835616
aag149
ag149
a(lp150
F334.65803494196336
aF21.176470588235293
aag150
ag150
a(lp151
F341.246270236081
aF24.0
aag151
a(lp152
F345.167838863532
aF23.529411764705884
aag152
a(lp153
F346.73646631451237
aF21.80392156862745
aag153
ag153
ag153
a(lp154
F344.22666239294375
aF16.627450980392158
aag154
a(lp155
F338.2658780792183
aF13.647058823529411
aag155
ag155
a(lp156
F344.3835251380418
aF13.176470588235293
aag156
ag156
a(lp157
F348.61881925568883
aF10.03921568627451
aag157
a(lp158
F350.65803494196336
aF5.96078431372549
aag158
a(lp159
F349.87372121647314
aF2.196078431372549
aag159
ag159
a(lp160
F342.97176043215944
aF0.0
aag160
ag160
ag160
ag160
a(lp161
F337.32470160863005
aF1.2549019607843137
aag161
a(lp162
F334.50117219686535
aF7.686274509803922
aag162
ag162
a(lp163
F339.2070545498065
aF10.823529411764707
aag163
ag163
a(lp164
F359.7023699173328
aF18.40394088669951
aag164
ag164
a(lp165
F358.8353748434412
aF16.591133004926107
aag165
a(lp166
F355.99793641979585
aF17.300492610837438
aag166
a(lp167
F354.65803494196336
aF21.87192118226601
aag167
a(lp168
F355.76148321782546
aF23.842364532019705
aag168
ag168
ag168
a(lp169
F361.8304487350668
aF22.817733990147783
aag169
a(lp170
F364.9831580946727
aF20.059113300492612
aag170
ag170
a(lp171
F365.4560644986136
aF18.64039408866995
aag171
a(lp172
F363.0915324789092
aF17.379310344827587
aag172
a(lp173
F365.9289709025545
aF14.778325123152708
aag173
a(lp174
F362.38217287299784
aF9.10344827586207
aag174
ag174
a(lp175
F367.4265078483673
aF8.0
aag175
a(lp176
F367.6665078483673
aF27.2
aag176
ag176
ag176
a(lp177
F368.9465078483673
aF24.96
aag177
ag177
a(lp178
F372.14650784836726
aF24.0
aag178
ag178
ag178
a(lp179
F373.90650784836726
aF25.28
aag179
ag179
ag179
a(lp180
F374.0665078483673
aF27.44
aag180
ag180
ag180
a(lp181
F383.11084282373673
aF18.40394088669951
aag181
ag181
a(lp182
F382.2438477498451
aF16.591133004926107
aag182
ag182
ag182
a(lp183
F379.40640932619976
aF17.300492610837438
aag183
a(lp184
F378.0665078483673
aF21.87192118226601
aag184
ag184
a(lp185
F379.1699561242294
aF23.842364532019705
aag185
ag185
ag185
a(lp186
F385.2389216414707
aF22.817733990147783
aag186
a(lp187
F388.39163100107663
aF20.059113300492612
aag187
a(lp188
F388.86453740501753
aF18.64039408866995
aag188
a(lp189
F386.5000053853131
aF17.379310344827587
aag189
a(lp190
F389.3374438089584
aF14.778325123152708
aag190
ag190
a(lp191
F385.79064577940176
aF9.10344827586207
aag191
ag191
a(lp192
F390.8349807547712
aF8.0
aag192
a.