(lp0
(lp1
F9.833333333333334
aF19.666666666666664
aag1
ag1
ag1
a(lp2
F11.0
aF21.5
aag2
ag2
ag2
a(lp3
F14.833333333333334
aF19.0
aag3
ag3
ag3
a(lp4
F15.833333333333334
aF16.833333333333336
aag4
ag4
ag4
a(lp5
F12.833333333333334
aF12.333333333333332
aag5
ag5
a(lp6
F7.166666666666667
aF11.166666666666666
aag6
ag6
a(lp7
F2.666666666666667
aF12.333333333333332
aag7
ag7
ag7
ag7
a(lp8
F1.0
aF17.333333333333336
aag8
ag8
ag8
a(lp9
F4.333333333333334
aF21.5
aag9
ag9
a(lp10
F8.0
aF23.333333333333336
aag10
ag10
ag10
ag10
a(lp11
F18.166666666666668
aF23.666666666666664
aag11
ag11
ag11
a(lp12
F28.0
aF18.833333333333336
aag12
ag12
ag12
ag12
ag12
a(lp13
F30.166666666666668
aF16.166666666666664
aag13
ag13
a(lp14
F29.833333333333332
aF12.666666666666668
aag14
ag14
ag14
a(lp15
F25.0
aF8.666666666666666
aag15
ag15
ag15
a(lp16
F20.333333333333332
aF8.0
aag16
ag16
a(lp17
F38.14356435643565
aF8.158415841584159
aag17
ag17
ag17
a(lp18
F35.45049504950495
aF12.435643564356436
aag18
ag18
ag18
a(lp19
F34.5
aF18.13861386138614
aag19
ag19
a(lp20
F34.975247524752476
aF20.99009900990099
aag20
ag20
a(lp21
F38.61881188118812
aF23.207920792079207
aag21
ag21
ag21
ag21
ag21
a(lp22
F46.06435643564356
aF24.0
aag22
ag22
a(lp23
F51.60891089108911
aF23.04950495049505
aag23
ag23
a(lp24
F57.31188118811881
aF20.198019801980198
aag24
ag24
a(lp25
F59.05445544554455
aF17.18811881188119
aag25
ag25
a(lp26
F58.42079207920792
aF10.534653465346535
aag26
ag26
a(lp27
F54.14356435643565
aF8.0
aag27
ag27
a(lp28
F58.103960396039604
aF8.950495049504951
aag28
ag28
a(lp29
F78.6980198019802
aF8.158415841584159
aag29
ag29
a(lp30
F79.8069306930693
aF9.10891089108911
aag30
ag30
a(lp31
F79.17326732673267
aF11.96039603960396
aag31
ag31
ag31
ag31
a(lp32
F77.11386138613861
aF17.980198019801982
aag32
ag32
ag32
ag32
a(lp33
F75.37128712871288
aF19.247524752475247
aag33
ag33
a(lp34
F88.85126566843877
aF18.40394088669951
aag34
ag34
ag34
ag34
ag34
a(lp35
F87.98427059454714
aF16.591133004926107
aag35
ag35
a(lp36
F85.14683217090182
aF17.300492610837438
aag36
ag36
a(lp37
F83.8069306930693
aF21.87192118226601
aag37
ag37
a(lp38
F84.91037896893137
aF23.842364532019705
aag38
ag38
ag38
a(lp39
F90.97934448617275
aF22.817733990147783
aag39
ag39
a(lp40
F94.13205384577867
aF20.059113300492612
aag40
ag40
ag40
a(lp41
F94.60496024971955
aF18.64039408866995
aag41
ag41
a(lp42
F92.24042823001511
aF17.379310344827587
aag42
ag42
a(lp43
F95.07786665366044
aF14.778325123152708
aag43
ag43
a(lp44
F91.5310686241038
aF9.10344827586207
aag44
ag44
a(lp45
F96.57540359947325
aF8.0
aag45
ag45
ag45
a(lp46
F96.81540359947324
aF27.2
aag46
ag46
a(lp47
F98.09540359947324
aF24.96
aag47
ag47
a(lp48
F101.29540359947325
aF24.0
aag48
ag48
a(lp49
F103.05540359947325
aF25.28
aag49
ag49
ag49
a(lp50
F103.21540359947325
aF27.44
aag50
ag50
ag50
a(lp51
F112.25973857484271
aF18.40394088669951
aag51
ag51
a(lp52
F111.39274350095108
aF16.591133004926107
aag52
ag52
ag52
a(lp53
F108.55530507730576
aF17.300492610837438
aag53
ag53
ag53
a(lp54
F107.21540359947325
aF21.87192118226601
aag54
ag54
a(lp55
F108.31885187533531
aF23.842364532019705
aag55
ag55
ag55
ag55
a(lp56
F114.3878173925767
aF22.817733990147783
aag56
ag56
ag56
ag56
a(lp57
F117.54052675218261
aF20.059113300492612
aag57
ag57
a(lp58
F118.0134331561235
aF18.64039408866995
aag58
ag58
a(lp59
F115.64890113641906
aF17.379310344827587
aag59
ag59
a(lp60
F118.48633956006438
aF14.778325123152708
aag60
ag60
ag60
a(lp61
F114.93954153050774
aF9.10344827586207
aag61
ag61
ag61
a(lp62
F119.98387650587719
aF8.0
aag62
ag62
ag62
a(lp63
F132.81720983921053
aF19.666666666666664
aag63
ag63
ag63
a(lp64
F133.9838765058772
aF21.5
aag64
ag64
ag64
a(lp65
F137.81720983921053
aF19.0
aag65
ag65
a(lp66
F138.81720983921053
aF16.833333333333336
aag66
ag66
a(lp67
F135.81720983921053
aF12.333333333333332
aag67
ag67
ag67
a(lp68
F130.15054317254385
aF11.166666666666666
aag68
ag68
ag68
a(lp69
F124.81720983921052
aF13.166666666666668
aag69
ag69
a(lp70
F123.98387650587719
aF17.333333333333336
aag70
ag70
a(lp71
F127.31720983921052
aF21.5
aag71
ag71
ag71
a(lp72
F130.9838765058772
aF23.333333333333336
aag72
ag72
ag72
a(lp73
F141.15054317254385
aF23.666666666666664
aag73
ag73
ag73
ag73
a(lp74
F150.9838765058772
aF18.833333333333336
aag74
ag74
a(lp75
F153.15054317254385
aF16.166666666666664
aag75
ag75
a(lp76
F152.81720983921053
aF12.666666666666668
aag76
ag76
a(lp77
F147.9838765058772
aF8.666666666666666
aag77
ag77
ag77
a(lp78
F143.31720983921053
aF8.0
aag78
ag78
a(lp79
F159.14313576513646
aF13.57037037037037
aag79
ag79
a(lp80
F157.60239502439572
aF19.85185185185185
aag80
ag80
a(lp81
F161.2764690984698
aF23.17037037037037
aag81
ag81
ag81
a(lp82
F169.33572835772904
aF23.762962962962963
aag82
ag82
ag82
a(lp83
F172.77276539476608
aF22.340740740740742
aag83
ag83
a(lp84
F173.4838765058772
aF20.681481481481484
aag84
ag84
ag84
a(lp85
F169.33572835772904
aF13.807407407407407
aag85
ag85
ag85
a(lp86
F161.51350613550682
aF8.0
aag86
ag86
a(lp87
F174.55054317254385
aF8.948148148148148
aag87
ag87
a(lp88
F174.1949876169883
aF16.651851851851852
aag88
ag88
a(lp89
F189.40768602968672
aF21.6
aag89
ag89
a(lp90
F187.80768602968672
aF24.0
aag90
ag90
ag90
ag90
a(lp91
F185.06482888682956
aF23.65714285714286
aag91
ag91
ag91
a(lp92
F181.75054317254384
aF21.485714285714288
aag92
ag92
ag92
a(lp93
F180.15054317254385
aF18.057142857142857
aag93
ag93
ag93
a(lp94
F180.493400315401
aF16.685714285714283
aag94
ag94
ag94
a(lp95
F187.12197174397244
aF14.285714285714285
aag95
ag95
ag95
a(lp96
F188.37911460111528
aF10.17142857142857
aag96
ag96
a(lp97
F184.493400315401
aF8.0
aag97
ag97
a(lp98
F178.55054317254385
aF9.942857142857143
aag98
ag98
ag98
ag98
a(lp99
F186.7214115198828
aF21.176470588235293
aag99
ag99
a(lp100
F193.30964681400044
aF24.0
aag100
ag100
ag100
a(lp101
F197.2312154414514
aF23.529411764705884
aag101
ag101
a(lp102
F198.79984289243183
aF21.80392156862745
aag102
ag102
ag102
a(lp103
F196.29003897086318
aF16.627450980392158
aag103
ag103
a(lp104
F190.32925465713768
aF13.647058823529411
aag104
ag104
a(lp105
F196.44690171596122
aF13.176470588235293
aag105
ag105
ag105
ag105
a(lp106
F200.6821958336083
aF10.03921568627451
aag106
ag106
ag106
a(lp107
F202.7214115198828
aF5.96078431372549
aag107
ag107
a(lp108
F201.9370977943926
aF2.196078431372549
aag108
ag108
ag108
a(lp109
F195.03513701007887
aF0.0
aag109
ag109
a(lp110
F189.38807818654945
aF1.2549019607843137
aag110
ag110
ag110
a(lp111
F186.56454877478475
aF7.686274509803922
aag111
ag111
a(lp112
F191.27043112772594
aF10.823529411764707
aag112
ag112
a(lp113
F211.77404309883016
aF12.912280701754387
aag113
ag113
ag113
a(lp114
F208.2652711690056
aF15.157894736842106
aag114
ag114
ag114
ag114
a(lp115
F206.7214115198828
aF18.80701754385965
aag115
ag115
a(lp116
F208.2652711690056
aF21.19298245614035
aag116
ag116
ag116
ag116
a(lp117
F214.44070976549682
aF23.719298245614034
aag117
ag117
a(lp118
F227.4933413444442
aF22.596491228070175
aag118
ag118
ag118
ag118
ag118
a(lp119
F233.66877994093542
aF18.24561403508772
aag119
ag119
ag119
ag119
a(lp120
F233.2477273093565
aF13.192982456140351
aag120
ag120
a(lp121
F226.5108852040933
aF11.228070175438596
aag121
ag121
a(lp122
F223.56351678304068
aF13.894736842105264
aag122
ag122
ag122
ag122
ag122
a(lp123
F226.93193783567227
aF19.50877192982456
aag123
ag123
a(lp124
F233.8091308181284
aF22.315789473684212
aag124
ag124
a(lp125
F239.56351678304068
aF21.333333333333336
aag125
ag125
a(lp126
F246.5810606426898
aF14.87719298245614
aag126
ag126
ag126
a(lp127
F247.84421853742666
aF9.68421052631579
aag127
ag127
ag127
ag127
a(lp128
F248.40562204619857
aF18.526315789473685
aag128
ag128
ag128
ag128
a(lp129
F252.75649923918104
aF20.771929824561404
aag129
ag129
ag129
a(lp130
F260.47579748479507
aF21.894736842105264
aag130
ag130
a(lp131
F266.7915869584793
aF20.771929824561404
aag131
ag131
a(lp132
F271.28281502865474
aF16.70175438596491
aag132
ag132
ag132
a(lp133
F271.14246415146175
aF11.087719298245613
aag133
ag133
ag133
ag133
a(lp134
F267.07228871286526
aF8.280701754385966
aag134
ag134
a(lp135
F261.59860450233896
aF10.385964912280702
aag135
ag135
ag135
a(lp136
F261.17755187076
aF13.052631578947368
aag136
ag136
a(lp137
F262.7214115198828
aF16.140350877192983
aag137
ag137
a(lp138
F267.9143939760232
aF20.350877192982455
aag138
ag138
ag138
a(lp139
F277.037200993567
aF21.19298245614035
aag139
ag139
ag139
a(lp140
F281.66877994093545
aF20.070175438596493
aag140
ag140
ag140
ag140
a(lp141
F285.59860450233896
aF17.263157894736842
aag141
ag141
a(lp142
F288.9670255549705
aF11.508771929824562
aag142
ag142
ag142
a(lp143
F288.1249202918126
aF8.0
aag143
ag143
a(lp144
F289.2070255549705
aF27.2
aag144
ag144
a(lp145
F290.4870255549705
aF24.96
aag145
ag145
a(lp146
F293.6870255549705
aF24.0
aag146
ag146
ag146
a(lp147
F295.4470255549705
aF25.28
aag147
ag147
a(lp148
F295.6070255549705
aF27.44
aag148
ag148
ag148
a.